target datalayout = "e-m:e-p270:32:32-p271:32:32-p272:64:64-i64:64-i128:128-f80:128-n8:16:32:64-S128"
target triple = "x86_64-pc-linux-gnu"

%struct.H5FL_reg_head_t = type { i8, i32, i32, ptr, i64, ptr }
%struct.H5EA_dbk_page_t = type { %struct.H5C_cache_entry_t, ptr, ptr, i64, i64, i8, ptr, ptr }
%struct.H5C_cache_entry_t = type { ptr, i64, i64, ptr, i8, ptr, i8, i8, i8, i8, i32, i8, i8, i8, i8, i8, i32, ptr, i32, i32, i32, i32, i32, i8, i8, ptr, ptr, ptr, ptr, ptr, ptr, i8, i32, i8, i64, ptr, i64, i64, i32, i8, i32, i32, i8, ptr, ptr, ptr }
%struct.H5EA_hdr_t = type { %struct.H5C_cache_entry_t, %struct.H5EA_create_t, i64, %struct.H5EA_stat_t, %struct.anon.1, i64, i64, i64, ptr, i64, i8, i64, i64, i8, i64, ptr, i64, ptr, i8, ptr, ptr }
%struct.H5EA_create_t = type { ptr, i8, i8, i8, i8, i8, i8 }
%struct.H5EA_stat_t = type { %struct.anon, %struct.anon.0 }
%struct.anon = type { i64, i64, i64 }
%struct.anon.0 = type { i64, i64, i64, i64, i64, i64 }
%struct.anon.1 = type { i64, ptr }

@H5_H5EA_dblk_page_t_reg_free_list = internal global %struct.H5FL_reg_head_t { i8 0, i32 0, i32 0, ptr @.str.13, i64 304, ptr null }, align 8
@.str = private unnamed_addr constant [106 x i8] c"generated/home/dtcxzyw/WorkSpace/Projects/compilers/llvm-opt-benchmark/bench/hdf5/hdf5/src/H5EAdblkpage.c\00", align 1
@__func__.H5EA__dblk_page_alloc = private unnamed_addr constant [22 x i8] c"H5EA__dblk_page_alloc\00", align 1
@H5E_EARRAY_g = external global i64, align 8
@H5E_CANTALLOC_g = external global i64, align 8
@.str.1 = private unnamed_addr constant [62 x i8] c"memory allocation failed for extensible array data block page\00", align 1
@H5E_CANTINC_g = external global i64, align 8
@.str.2 = private unnamed_addr constant [55 x i8] c"can't increment reference count on shared array header\00", align 1
@.str.3 = private unnamed_addr constant [60 x i8] c"memory allocation failed for data block page element buffer\00", align 1
@H5E_CANTFREE_g = external global i64, align 8
@.str.4 = private unnamed_addr constant [51 x i8] c"unable to destroy extensible array data block page\00", align 1

; Function Attrs: nounwind uwtable
define ptr @H5EA__dblk_page_alloc(ptr noundef %0, ptr noundef %1) #0 {
  %3 = alloca ptr, align 8
  %4 = alloca ptr, align 8
  %5 = alloca ptr, align 8
  %6 = alloca ptr, align 8
  %7 = alloca i8, align 1
  store ptr %0, ptr %3, align 8
  store ptr %1, ptr %4, align 8
  store ptr null, ptr %5, align 8
  store ptr null, ptr %6, align 8
  store i8 0, ptr %7, align 1
  %8 = call noalias ptr @H5FL_reg_calloc(ptr noundef @H5_H5EA_dblk_page_t_reg_free_list)
  store ptr %8, ptr %5, align 8
  %9 = icmp eq ptr null, %8
  br i1 %9, label %10, label %25

10:                                               ; preds = %2
  br label %11

11:                                               ; preds = %10
  br label %12

12:                                               ; preds = %11
  br label %13

13:                                               ; preds = %12
  %14 = load i64, ptr @H5E_EARRAY_g, align 8
  %15 = load i64, ptr @H5E_CANTALLOC_g, align 8
  %16 = call i32 (ptr, ptr, i32, i64, i64, ptr, ...) @H5E_printf_stack(ptr noundef @.str, ptr noundef @__func__.H5EA__dblk_page_alloc, i32 noundef 94, i64 noundef %14, i64 noundef %15, ptr noundef @.str.1)
  br label %17

17:                                               ; preds = %13
  store i8 1, ptr %7, align 1
  %18 = load i8, ptr %7, align 1
  %19 = trunc i8 %18 to i1
  %20 = zext i1 %19 to i8
  store i8 %20, ptr %7, align 1
  br label %21

21:                                               ; preds = %17
  br label %22

22:                                               ; preds = %21
  store ptr null, ptr %6, align 8
  br label %76

23:                                               ; No predecessors!
  br label %24

24:                                               ; preds = %23
  br label %25

25:                                               ; preds = %24, %2
  %26 = load ptr, ptr %3, align 8
  %27 = call i32 @H5EA__hdr_incr(ptr noundef %26)
  %28 = icmp slt i32 %27, 0
  br i1 %28, label %29, label %44

29:                                               ; preds = %25
  br label %30

30:                                               ; preds = %29
  br label %31

31:                                               ; preds = %30
  br label %32

32:                                               ; preds = %31
  %33 = load i64, ptr @H5E_EARRAY_g, align 8
  %34 = load i64, ptr @H5E_CANTINC_g, align 8
  %35 = call i32 (ptr, ptr, i32, i64, i64, ptr, ...) @H5E_printf_stack(ptr noundef @.str, ptr noundef @__func__.H5EA__dblk_page_alloc, i32 noundef 98, i64 noundef %33, i64 noundef %34, ptr noundef @.str.2)
  br label %36

36:                                               ; preds = %32
  store i8 1, ptr %7, align 1
  %37 = load i8, ptr %7, align 1
  %38 = trunc i8 %37 to i1
  %39 = zext i1 %38 to i8
  store i8 %39, ptr %7, align 1
  br label %40

40:                                               ; preds = %36
  br label %41

41:                                               ; preds = %40
  store ptr null, ptr %6, align 8
  br label %76

42:                                               ; No predecessors!
  br label %43

43:                                               ; preds = %42
  br label %44

44:                                               ; preds = %43, %25
  %45 = load ptr, ptr %3, align 8
  %46 = load ptr, ptr %5, align 8
  %47 = getelementptr inbounds %struct.H5EA_dbk_page_t, ptr %46, i32 0, i32 2
  store ptr %45, ptr %47, align 8
  %48 = load ptr, ptr %4, align 8
  %49 = load ptr, ptr %5, align 8
  %50 = getelementptr inbounds %struct.H5EA_dbk_page_t, ptr %49, i32 0, i32 7
  store ptr %48, ptr %50, align 8
  %51 = load ptr, ptr %3, align 8
  %52 = load ptr, ptr %3, align 8
  %53 = getelementptr inbounds %struct.H5EA_hdr_t, ptr %52, i32 0, i32 16
  %54 = load i64, ptr %53, align 8
  %55 = call noalias ptr @H5EA__hdr_alloc_elmts(ptr noundef %51, i64 noundef %54)
  %56 = load ptr, ptr %5, align 8
  %57 = getelementptr inbounds %struct.H5EA_dbk_page_t, ptr %56, i32 0, i32 1
  store ptr %55, ptr %57, align 8
  %58 = icmp eq ptr null, %55
  br i1 %58, label %59, label %74

59:                                               ; preds = %44
  br label %60

60:                                               ; preds = %59
  br label %61

61:                                               ; preds = %60
  br label %62

62:                                               ; preds = %61
  %63 = load i64, ptr @H5E_EARRAY_g, align 8
  %64 = load i64, ptr @H5E_CANTALLOC_g, align 8
  %65 = call i32 (ptr, ptr, i32, i64, i64, ptr, ...) @H5E_printf_stack(ptr noundef @.str, ptr noundef @__func__.H5EA__dblk_page_alloc, i32 noundef 107, i64 noundef %63, i64 noundef %64, ptr noundef @.str.3)
  br label %66

66:                                               ; preds = %62
  store i8 1, ptr %7, align 1
  %67 = load i8, ptr %7, align 1
  %68 = trunc i8 %67 to i1
  %69 = zext i1 %68 to i8
  store i8 %69, ptr %7, align 1
  br label %70

70:                                               ; preds = %66
  br label %71

71:                                               ; preds = %70
  store ptr null, ptr %6, align 8
  br label %76

72:                                               ; No predecessors!
  br label %73

73:                                               ; preds = %72
  br label %74

74:                                               ; preds = %73, %44
  %75 = load ptr, ptr %5, align 8
  store ptr %75, ptr %6, align 8
  br label %76

76:                                               ; preds = %74, %71, %41, %22
  %77 = load ptr, ptr %6, align 8
  %78 = icmp ne ptr %77, null
  br i1 %78, label %100, label %79

79:                                               ; preds = %76
  %80 = load ptr, ptr %5, align 8
  %81 = icmp ne ptr %80, null
  br i1 %81, label %82, label %99

82:                                               ; preds = %79
  %83 = load ptr, ptr %5, align 8
  %84 = call i32 @H5EA__dblk_page_dest(ptr noundef %83)
  %85 = icmp slt i32 %84, 0
  br i1 %85, label %86, label %99

86:                                               ; preds = %82
  br label %87

87:                                               ; preds = %86
  br label %88

88:                                               ; preds = %87
  br label %89

89:                                               ; preds = %88
  %90 = load i64, ptr @H5E_EARRAY_g, align 8
  %91 = load i64, ptr @H5E_CANTFREE_g, align 8
  %92 = call i32 (ptr, ptr, i32, i64, i64, ptr, ...) @H5E_printf_stack(ptr noundef @.str, ptr noundef @__func__.H5EA__dblk_page_alloc, i32 noundef 115, i64 noundef %90, i64 noundef %91, ptr noundef @.str.4)
  br label %93

93:                                               ; preds = %89
  store i8 1, ptr %7, align 1
  %94 = load i8, ptr %7, align 1
  %95 = trunc i8 %94 to i1
  %96 = zext i1 %95 to i8
  store i8 %96, ptr %7, align 1
  br label %97

97:                                               ; preds = %93
  store ptr null, ptr %6, align 8
  br label %98

98:                                               ; preds = %97
  br label %99

99:                                               ; preds = %98, %82, %79
  br label %100

100:                                              ; preds = %99, %76
  %101 = load ptr, ptr %6, align 8
  ret ptr %101
}