; Function Attrs: nounwind uwtable
define ptr @H5EA__dblk_page_alloc(ptr noundef %0, ptr noundef %1) local_unnamed_addr #0 {
  %3 = tail call noalias ptr @H5FL_reg_calloc(ptr noundef nonnull @H5_H5EA_dblk_page_t_reg_free_list) #2
  %4 = icmp eq ptr %3, null
  br i1 %4, label %5, label %9

5:                                                ; preds = %2
  %6 = load i64, ptr @H5E_EARRAY_g, align 8
  %7 = load i64, ptr @H5E_CANTALLOC_g, align 8
  %8 = tail call i32 (ptr, ptr, i32, i64, i64, ptr, ...) @H5E_printf_stack(ptr noundef nonnull @.str, ptr noundef nonnull @__func__.H5EA__dblk_page_alloc, i32 noundef 94, i64 noundef %6, i64 noundef %7, ptr noundef nonnull @.str.1) #2
  br label %.thread

9:                                                ; preds = %2
  %10 = tail call i32 @H5EA__hdr_incr(ptr noundef %0) #2
  %11 = icmp slt i32 %10, 0
  br i1 %11, label %12, label %16

12:                                               ; preds = %9
  %13 = load i64, ptr @H5E_EARRAY_g, align 8
  %14 = load i64, ptr @H5E_CANTINC_g, align 8
  %15 = tail call i32 (ptr, ptr, i32, i64, i64, ptr, ...) @H5E_printf_stack(ptr noundef nonnull @.str, ptr noundef nonnull @__func__.H5EA__dblk_page_alloc, i32 noundef 98, i64 noundef %13, i64 noundef %14, ptr noundef nonnull @.str.2) #2
  br label %28

16:                                               ; preds = %9
  %17 = getelementptr inbounds i8, ptr %3, i64 256
  store ptr %0, ptr %17, align 8
  %18 = getelementptr inbounds i8, ptr %3, i64 296
  store ptr %1, ptr %18, align 8
  %19 = getelementptr inbounds i8, ptr %0, i64 448
  %20 = load i64, ptr %19, align 8
  %21 = tail call noalias ptr @H5EA__hdr_alloc_elmts(ptr noundef %0, i64 noundef %20) #2
  %22 = getelementptr inbounds i8, ptr %3, i64 248
  store ptr %21, ptr %22, align 8
  %23 = icmp eq ptr %21, null
  br i1 %23, label %24, label %.thread

24:                                               ; preds = %16
  %25 = load i64, ptr @H5E_EARRAY_g, align 8
  %26 = load i64, ptr @H5E_CANTALLOC_g, align 8
  %27 = tail call i32 (ptr, ptr, i32, i64, i64, ptr, ...) @H5E_printf_stack(ptr noundef nonnull @.str, ptr noundef nonnull @__func__.H5EA__dblk_page_alloc, i32 noundef 107, i64 noundef %25, i64 noundef %26, ptr noundef nonnull @.str.3) #2
  br label %28

28:                                               ; preds = %12, %24
  %29 = tail call i32 @H5EA__dblk_page_dest(ptr noundef nonnull %3)
  %30 = icmp slt i32 %29, 0
  br i1 %30, label %31, label %.thread

31:                                               ; preds = %28
  %32 = load i64, ptr @H5E_EARRAY_g, align 8
  %33 = load i64, ptr @H5E_CANTFREE_g, align 8
  %34 = tail call i32 (ptr, ptr, i32, i64, i64, ptr, ...) @H5E_printf_stack(ptr noundef nonnull @.str, ptr noundef nonnull @__func__.H5EA__dblk_page_alloc, i32 noundef 115, i64 noundef %32, i64 noundef %33, ptr noundef nonnull @.str.4) #2
  br label %.thread

.thread:                                          ; preds = %5, %16, %28, %31
  %.1 = phi ptr [ null, %31 ], [ null, %28 ], [ %3, %16 ], [ null, %5 ]
  ret ptr %.1
}